target datalayout = "e-m:e-p270:32:32-p271:32:32-p272:64:64-i64:64-i128:128-f80:128-n8:16:32:64-S128"
target triple = "x86_64-pc-linux-gnu"

%struct.RData = type { %struct.RBasic, ptr, ptr, ptr }
%struct.RBasic = type { i64, i64 }
%struct.cross_ractor_require = type { i64, i64, i64, i64, i64, i64 }

@ruby_current_ec = external thread_local global ptr, align 8
@rb_eException = external global i64, align 8

; Function Attrs: inlinehint nounwind sspstrong uwtable
define internal ptr @RACTOR_PTR(i64 noundef %0) #4 {
  %2 = alloca i64, align 8
  %3 = alloca ptr, align 8
  store i64 %0, ptr %2, align 8, !tbaa !16
  call void @llvm.lifetime.start.p0(i64 8, ptr %3) #16
  %4 = load i64, ptr %2, align 8, !tbaa !16
  %5 = inttoptr i64 %4 to ptr
  %6 = getelementptr inbounds nuw %struct.RData, ptr %5, i32 0, i32 3
  %7 = load ptr, ptr %6, align 8, !tbaa !117
  store ptr %7, ptr %3, align 8, !tbaa !7
  %8 = load ptr, ptr %3, align 8, !tbaa !7
  call void @llvm.lifetime.end.p0(i64 8, ptr %3) #16
  ret ptr %8
}

; Function Attrs: nounwind sspstrong uwtable
define internal i64 @rb_ractor_channel_yield(ptr noundef %0, i64 noundef %1, i64 noundef %2) #0 {
  %4 = alloca ptr, align 8
  %5 = alloca i64, align 8
  %6 = alloca i64, align 8
  %7 = alloca ptr, align 8
  store ptr %0, ptr %4, align 8, !tbaa !88
  store i64 %1, ptr %5, align 8, !tbaa !16
  store i64 %2, ptr %6, align 8, !tbaa !16
  call void @llvm.lifetime.start.p0(i64 8, ptr %7) #16
  %8 = load i64, ptr %5, align 8, !tbaa !16
  %9 = call ptr @RACTOR_PTR(i64 noundef %8)
  store ptr %9, ptr %7, align 8, !tbaa !7
  %10 = load ptr, ptr %4, align 8, !tbaa !88
  %11 = load ptr, ptr %7, align 8, !tbaa !7
  %12 = load i64, ptr %6, align 8, !tbaa !16
  %13 = call i64 @ractor_send(ptr noundef %10, ptr noundef %11, i64 noundef %12, i64 noundef 0)
  call void @llvm.lifetime.end.p0(i64 8, ptr %7) #16
  ret i64 4
}

; Function Attrs: inlinehint nounwind sspstrong uwtable
define internal ptr @rb_current_execution_context(i1 noundef zeroext %0) #4 {
  %2 = alloca i8, align 1
  %3 = alloca ptr, align 8
  %4 = zext i1 %0 to i8
  store i8 %4, ptr %2, align 1, !tbaa !89
  call void @llvm.lifetime.start.p0(i64 8, ptr %3) #16
  %5 = call align 8 ptr @llvm.threadlocal.address.p0(ptr align 8 @ruby_current_ec)
  %6 = load ptr, ptr %5, align 8, !tbaa !88
  store ptr %6, ptr %3, align 8, !tbaa !88
  %7 = load ptr, ptr %3, align 8, !tbaa !88
  call void @llvm.lifetime.end.p0(i64 8, ptr %3) #16
  ret ptr %7
}

; Function Attrs: nounwind sspstrong uwtable
define internal i64 @ractor_require_protect(ptr noundef %0, ptr noundef %1) #0 {
  %3 = alloca ptr, align 8
  %4 = alloca ptr, align 8
  store ptr %0, ptr %3, align 8, !tbaa !179
  store ptr %1, ptr %4, align 8, !tbaa !124
  %5 = load ptr, ptr %4, align 8, !tbaa !124
  %6 = load ptr, ptr %3, align 8, !tbaa !179
  %7 = ptrtoint ptr %6 to i64
  %8 = load ptr, ptr %3, align 8, !tbaa !179
  %9 = ptrtoint ptr %8 to i64
  %10 = load i64, ptr @rb_eException, align 8, !tbaa !16
  %11 = call i64 (ptr, i64, ptr, i64, ...) @rb_rescue2(ptr noundef %5, i64 noundef %7, ptr noundef @require_rescue, i64 noundef %9, i64 noundef %10, i32 noundef 0)
  %12 = load ptr, ptr %3, align 8, !tbaa !179
  %13 = ptrtoint ptr %12 to i64
  %14 = load ptr, ptr %3, align 8, !tbaa !179
  %15 = ptrtoint ptr %14 to i64
  %16 = load i64, ptr @rb_eException, align 8, !tbaa !16
  %17 = call i64 (ptr, i64, ptr, i64, ...) @rb_rescue2(ptr noundef @require_result_copy_body, i64 noundef %13, ptr noundef @require_result_copy_resuce, i64 noundef %15, i64 noundef %16, i32 noundef 0)
  %18 = call ptr @rb_current_execution_context(i1 noundef zeroext true)
  %19 = load ptr, ptr %3, align 8, !tbaa !179
  %20 = getelementptr inbounds nuw %struct.cross_ractor_require, ptr %19, i32 0, i32 0
  %21 = load i64, ptr %20, align 8, !tbaa !172
  %22 = call i64 @rb_ractor_channel_yield(ptr noundef %18, i64 noundef %21, i64 noundef 20)
  ret i64 4
}

; Function Attrs: nounwind sspstrong uwtable
define internal i64 @ractor_autoload_load_func(ptr noundef %0) #0 {
  %2 = alloca ptr, align 8
  %3 = alloca ptr, align 8
  store ptr %0, ptr %2, align 8, !tbaa !124
  call void @llvm.lifetime.start.p0(i64 8, ptr %3) #16
  %4 = load ptr, ptr %2, align 8, !tbaa !124
  store ptr %4, ptr %3, align 8, !tbaa !179
  %5 = load ptr, ptr %3, align 8, !tbaa !179
  %6 = call i64 @ractor_require_protect(ptr noundef %5, ptr noundef @autoload_load_body)
  call void @llvm.lifetime.end.p0(i64 8, ptr %3) #16
  ret i64 %6
}