; Function Attrs: nounwind sspstrong uwtable
define internal noundef i64 @ractor_autoload_load_func(ptr noundef %0) #0 {
  %2 = ptrtoint ptr %0 to i64
  %3 = load i64, ptr @rb_eException, align 8, !tbaa !80
  %4 = tail call i64 (ptr, i64, ptr, i64, ...) @rb_rescue2(ptr noundef nonnull @autoload_load_body, i64 noundef %2, ptr noundef nonnull @require_rescue, i64 noundef %2, i64 noundef %3, i32 noundef 0) #19
  %5 = load i64, ptr @rb_eException, align 8, !tbaa !80
  %6 = tail call i64 (ptr, i64, ptr, i64, ...) @rb_rescue2(ptr noundef nonnull @require_result_copy_body, i64 noundef %2, ptr noundef nonnull @require_result_copy_resuce, i64 noundef %2, i64 noundef %5, i32 noundef 0) #19
  %7 = tail call align 8 ptr @llvm.threadlocal.address.p0(ptr align 8 @ruby_current_ec)
  %8 = load ptr, ptr %7, align 8, !tbaa !123
  %9 = load i64, ptr %0, align 8, !tbaa !191
  %10 = getelementptr i8, ptr %8, i64 48
  %.val.i = load ptr, ptr %10, align 8, !tbaa !90
  %11 = inttoptr i64 %9 to ptr
  %12 = getelementptr inbounds nuw i8, ptr %11, i64 32
  %13 = load ptr, ptr %12, align 8, !tbaa !111
  %14 = tail call fastcc i64 @ractor_send(ptr %.val.i, ptr noundef %13, i64 noundef 20, i64 noundef 0)
  ret i64 4
}